; Function Attrs: nounwind uwtable
define internal i32 @fold_kfold_numpow(ptr noundef %0) #0 {
  %2 = getelementptr inbounds nuw i8, ptr %0, i64 200
  %3 = load double, ptr %2, align 8, !tbaa !28
  %4 = getelementptr inbounds nuw i8, ptr %0, i64 216
  %5 = load double, ptr %4, align 8, !tbaa !28
  %6 = tail call double @lj_vm_foldarith(double noundef %3, double noundef %5, i32 noundef 5) #12
  %7 = bitcast double %6 to i64
  %8 = tail call i32 @lj_ir_knum_u64(ptr noundef %0, i64 noundef %7) #12
  ret i32 %8
}